target datalayout = "e-m:e-p270:32:32-p271:32:32-p272:64:64-i64:64-i128:128-f80:128-n8:16:32:64-S128"
target triple = "x86_64-pc-linux-gnu"

%struct.UConverterToUnicodeArgs = type { i16, i8, ptr, ptr, ptr, ptr, ptr, ptr }
%struct.UConverter = type { ptr, ptr, ptr, ptr, ptr, ptr, ptr, i32, i8, i8, i8, i8, i8, [7 x i8], i32, i32, i32, i32, i8, i8, i8, i8, i8, i8, i8, i8, [8 x i8], [32 x i8], [2 x i16], [2 x i16], [32 x i16], i32, [19 x i16], [31 x i8], i8, i8, i8, i32 }

; Function Attrs: inlinehint mustprogress nounwind uwtable
define internal noundef signext i8 @_ZL9U_SUCCESS10UErrorCode(i32 noundef %0) #4 {
  %2 = alloca i32, align 4
  store i32 %0, ptr %2, align 4, !tbaa !33
  %3 = load i32, ptr %2, align 4, !tbaa !33
  %4 = icmp sle i32 %3, 0
  %5 = zext i1 %4 to i8
  ret i8 %5
}

; Function Attrs: mustprogress nounwind uwtable
define internal void @_ZL31T_UConverter_toUnicode_UTF32_LEP23UConverterToUnicodeArgsP10UErrorCode(ptr noundef %0, ptr noundef %1) #1 {
  %3 = alloca ptr, align 8
  %4 = alloca ptr, align 8
  %5 = alloca ptr, align 8
  %6 = alloca ptr, align 8
  %7 = alloca ptr, align 8
  %8 = alloca ptr, align 8
  %9 = alloca ptr, align 8
  %10 = alloca i32, align 4
  %11 = alloca i32, align 4
  store ptr %0, ptr %3, align 8, !tbaa !3
  store ptr %1, ptr %4, align 8, !tbaa !3
  call void @llvm.lifetime.start.p0(i64 8, ptr %5) #6
  %12 = load ptr, ptr %3, align 8, !tbaa !3
  %13 = getelementptr inbounds nuw %struct.UConverterToUnicodeArgs, ptr %12, i32 0, i32 3
  %14 = load ptr, ptr %13, align 8, !tbaa !7
  store ptr %14, ptr %5, align 8, !tbaa !14
  call void @llvm.lifetime.start.p0(i64 8, ptr %6) #6
  %15 = load ptr, ptr %3, align 8, !tbaa !3
  %16 = getelementptr inbounds nuw %struct.UConverterToUnicodeArgs, ptr %15, i32 0, i32 5
  %17 = load ptr, ptr %16, align 8, !tbaa !15
  store ptr %17, ptr %6, align 8, !tbaa !16
  call void @llvm.lifetime.start.p0(i64 8, ptr %7) #6
  %18 = load ptr, ptr %3, align 8, !tbaa !3
  %19 = getelementptr inbounds nuw %struct.UConverterToUnicodeArgs, ptr %18, i32 0, i32 4
  %20 = load ptr, ptr %19, align 8, !tbaa !17
  store ptr %20, ptr %7, align 8, !tbaa !14
  call void @llvm.lifetime.start.p0(i64 8, ptr %8) #6
  %21 = load ptr, ptr %3, align 8, !tbaa !3
  %22 = getelementptr inbounds nuw %struct.UConverterToUnicodeArgs, ptr %21, i32 0, i32 6
  %23 = load ptr, ptr %22, align 8, !tbaa !18
  store ptr %23, ptr %8, align 8, !tbaa !16
  call void @llvm.lifetime.start.p0(i64 8, ptr %9) #6
  %24 = load ptr, ptr %3, align 8, !tbaa !3
  %25 = getelementptr inbounds nuw %struct.UConverterToUnicodeArgs, ptr %24, i32 0, i32 2
  %26 = load ptr, ptr %25, align 8, !tbaa !19
  %27 = getelementptr inbounds nuw %struct.UConverter, ptr %26, i32 0, i32 13
  %28 = getelementptr inbounds [7 x i8], ptr %27, i64 0, i64 0
  store ptr %28, ptr %9, align 8, !tbaa !14
  call void @llvm.lifetime.start.p0(i64 4, ptr %10) #6
  call void @llvm.lifetime.start.p0(i64 4, ptr %11) #6
  %29 = load ptr, ptr %3, align 8, !tbaa !3
  %30 = getelementptr inbounds nuw %struct.UConverterToUnicodeArgs, ptr %29, i32 0, i32 2
  %31 = load ptr, ptr %30, align 8, !tbaa !19
  %32 = getelementptr inbounds nuw %struct.UConverter, ptr %31, i32 0, i32 12
  %33 = load i8, ptr %32, align 8, !tbaa !20
  %34 = sext i8 %33 to i32
  %35 = icmp sgt i32 %34, 0
  br i1 %35, label %36, label %61

36:                                               ; preds = %2
  %37 = load ptr, ptr %6, align 8, !tbaa !16
  %38 = load ptr, ptr %8, align 8, !tbaa !16
  %39 = icmp ult ptr %37, %38
  br i1 %39, label %40, label %61

40:                                               ; preds = %36
  %41 = load ptr, ptr %3, align 8, !tbaa !3
  %42 = getelementptr inbounds nuw %struct.UConverterToUnicodeArgs, ptr %41, i32 0, i32 2
  %43 = load ptr, ptr %42, align 8, !tbaa !19
  %44 = getelementptr inbounds nuw %struct.UConverter, ptr %43, i32 0, i32 12
  %45 = load i8, ptr %44, align 8, !tbaa !20
  %46 = sext i8 %45 to i32
  store i32 %46, ptr %11, align 4, !tbaa !25
  %47 = load ptr, ptr %3, align 8, !tbaa !3
  %48 = getelementptr inbounds nuw %struct.UConverterToUnicodeArgs, ptr %47, i32 0, i32 2
  %49 = load ptr, ptr %48, align 8, !tbaa !19
  %50 = getelementptr inbounds nuw %struct.UConverter, ptr %49, i32 0, i32 12
  store i8 0, ptr %50, align 8, !tbaa !20
  %51 = load ptr, ptr %3, align 8, !tbaa !3
  %52 = getelementptr inbounds nuw %struct.UConverterToUnicodeArgs, ptr %51, i32 0, i32 2
  %53 = load ptr, ptr %52, align 8, !tbaa !19
  %54 = getelementptr inbounds nuw %struct.UConverter, ptr %53, i32 0, i32 14
  %55 = load i32, ptr %54, align 8, !tbaa !26
  %56 = sub i32 %55, 1
  store i32 %56, ptr %10, align 4, !tbaa !25
  %57 = load ptr, ptr %3, align 8, !tbaa !3
  %58 = getelementptr inbounds nuw %struct.UConverterToUnicodeArgs, ptr %57, i32 0, i32 2
  %59 = load ptr, ptr %58, align 8, !tbaa !19
  %60 = getelementptr inbounds nuw %struct.UConverter, ptr %59, i32 0, i32 14
  store i32 0, ptr %60, align 8, !tbaa !26
  br label %73

61:                                               ; preds = %36, %2
  br label %62

62:                                               ; preds = %171, %61
  %63 = load ptr, ptr %5, align 8, !tbaa !14
  %64 = load ptr, ptr %7, align 8, !tbaa !14
  %65 = icmp ult ptr %63, %64
  br i1 %65, label %66, label %70

66:                                               ; preds = %62
  %67 = load ptr, ptr %6, align 8, !tbaa !16
  %68 = load ptr, ptr %8, align 8, !tbaa !16
  %69 = icmp ult ptr %67, %68
  br label %70

70:                                               ; preds = %66, %62
  %71 = phi i1 [ false, %62 ], [ %69, %66 ]
  br i1 %71, label %72, label %172

72:                                               ; preds = %70
  store i32 0, ptr %11, align 4, !tbaa !25
  store i32 0, ptr %10, align 4, !tbaa !25
  br label %73

73:                                               ; preds = %72, %40
  br label %74

74:                                               ; preds = %112, %73
  %75 = load i32, ptr %11, align 4, !tbaa !25
  %76 = zext i32 %75 to i64
  %77 = icmp ult i64 %76, 4
  br i1 %77, label %78, label %113

78:                                               ; preds = %74
  %79 = load ptr, ptr %5, align 8, !tbaa !14
  %80 = load ptr, ptr %7, align 8, !tbaa !14
  %81 = icmp ult ptr %79, %80
  br i1 %81, label %82, label %99

82:                                               ; preds = %78
  %83 = load ptr, ptr %5, align 8, !tbaa !14
  %84 = load i8, ptr %83, align 1, !tbaa !27
  %85 = zext i8 %84 to i32
  %86 = load i32, ptr %11, align 4, !tbaa !25
  %87 = mul i32 %86, 8
  %88 = shl i32 %85, %87
  %89 = load i32, ptr %10, align 4, !tbaa !25
  %90 = or i32 %89, %88
  store i32 %90, ptr %10, align 4, !tbaa !25
  %91 = load ptr, ptr %5, align 8, !tbaa !14
  %92 = getelementptr inbounds nuw i8, ptr %91, i32 1
  store ptr %92, ptr %5, align 8, !tbaa !14
  %93 = load i8, ptr %91, align 1, !tbaa !27
  %94 = load ptr, ptr %9, align 8, !tbaa !14
  %95 = load i32, ptr %11, align 4, !tbaa !25
  %96 = add i32 %95, 1
  store i32 %96, ptr %11, align 4, !tbaa !25
  %97 = zext i32 %95 to i64
  %98 = getelementptr inbounds nuw i8, ptr %94, i64 %97
  store i8 %93, ptr %98, align 1, !tbaa !27
  br label %112

99:                                               ; preds = %78
  %100 = load i32, ptr %10, align 4, !tbaa !25
  %101 = add i32 %100, 1
  %102 = load ptr, ptr %3, align 8, !tbaa !3
  %103 = getelementptr inbounds nuw %struct.UConverterToUnicodeArgs, ptr %102, i32 0, i32 2
  %104 = load ptr, ptr %103, align 8, !tbaa !19
  %105 = getelementptr inbounds nuw %struct.UConverter, ptr %104, i32 0, i32 14
  store i32 %101, ptr %105, align 8, !tbaa !26
  %106 = load i32, ptr %11, align 4, !tbaa !25
  %107 = trunc i32 %106 to i8
  %108 = load ptr, ptr %3, align 8, !tbaa !3
  %109 = getelementptr inbounds nuw %struct.UConverterToUnicodeArgs, ptr %108, i32 0, i32 2
  %110 = load ptr, ptr %109, align 8, !tbaa !19
  %111 = getelementptr inbounds nuw %struct.UConverter, ptr %110, i32 0, i32 12
  store i8 %107, ptr %111, align 8, !tbaa !20
  br label %173

112:                                              ; preds = %82
  br label %74, !llvm.loop !55

113:                                              ; preds = %74
  %114 = load i32, ptr %10, align 4, !tbaa !25
  %115 = icmp ule i32 %114, 1114111
  br i1 %115, label %116, label %163

116:                                              ; preds = %113
  %117 = load i32, ptr %10, align 4, !tbaa !25
  %118 = and i32 %117, -2048
  %119 = icmp eq i32 %118, 55296
  br i1 %119, label %163, label %120

120:                                              ; preds = %116
  %121 = load i32, ptr %10, align 4, !tbaa !25
  %122 = icmp ule i32 %121, 65535
  br i1 %122, label %123, label %128

123:                                              ; preds = %120
  %124 = load i32, ptr %10, align 4, !tbaa !25
  %125 = trunc i32 %124 to i16
  %126 = load ptr, ptr %6, align 8, !tbaa !16
  %127 = getelementptr inbounds nuw i16, ptr %126, i32 1
  store ptr %127, ptr %6, align 8, !tbaa !16
  store i16 %125, ptr %126, align 2, !tbaa !30
  br label %162

128:                                              ; preds = %120
  %129 = load i32, ptr %10, align 4, !tbaa !25
  %130 = lshr i32 %129, 10
  %131 = add i32 %130, 55232
  %132 = trunc i32 %131 to i16
  %133 = load ptr, ptr %6, align 8, !tbaa !16
  %134 = getelementptr inbounds nuw i16, ptr %133, i32 1
  store ptr %134, ptr %6, align 8, !tbaa !16
  store i16 %132, ptr %133, align 2, !tbaa !30
  %135 = load i32, ptr %10, align 4, !tbaa !25
  %136 = and i32 %135, 1023
  %137 = or i32 %136, 56320
  %138 = trunc i32 %137 to i16
  %139 = zext i16 %138 to i32
  store i32 %139, ptr %10, align 4, !tbaa !25
  %140 = load ptr, ptr %6, align 8, !tbaa !16
  %141 = load ptr, ptr %8, align 8, !tbaa !16
  %142 = icmp ult ptr %140, %141
  br i1 %142, label %143, label %148

143:                                              ; preds = %128
  %144 = load i32, ptr %10, align 4, !tbaa !25
  %145 = trunc i32 %144 to i16
  %146 = load ptr, ptr %6, align 8, !tbaa !16
  %147 = getelementptr inbounds nuw i16, ptr %146, i32 1
  store ptr %147, ptr %6, align 8, !tbaa !16
  store i16 %145, ptr %146, align 2, !tbaa !30
  br label %161

148:                                              ; preds = %128
  %149 = load i32, ptr %10, align 4, !tbaa !25
  %150 = trunc i32 %149 to i16
  %151 = load ptr, ptr %3, align 8, !tbaa !3
  %152 = getelementptr inbounds nuw %struct.UConverterToUnicodeArgs, ptr %151, i32 0, i32 2
  %153 = load ptr, ptr %152, align 8, !tbaa !19
  %154 = getelementptr inbounds nuw %struct.UConverter, ptr %153, i32 0, i32 30
  %155 = getelementptr inbounds [32 x i16], ptr %154, i64 0, i64 0
  store i16 %150, ptr %155, align 8, !tbaa !30
  %156 = load ptr, ptr %3, align 8, !tbaa !3
  %157 = getelementptr inbounds nuw %struct.UConverterToUnicodeArgs, ptr %156, i32 0, i32 2
  %158 = load ptr, ptr %157, align 8, !tbaa !19
  %159 = getelementptr inbounds nuw %struct.UConverter, ptr %158, i32 0, i32 23
  store i8 1, ptr %159, align 1, !tbaa !32
  %160 = load ptr, ptr %4, align 8, !tbaa !3
  store i32 15, ptr %160, align 4, !tbaa !33
  br label %172

161:                                              ; preds = %143
  br label %162

162:                                              ; preds = %161, %123
  br label %171

163:                                              ; preds = %116, %113
  %164 = load i32, ptr %11, align 4, !tbaa !25
  %165 = trunc i32 %164 to i8
  %166 = load ptr, ptr %3, align 8, !tbaa !3
  %167 = getelementptr inbounds nuw %struct.UConverterToUnicodeArgs, ptr %166, i32 0, i32 2
  %168 = load ptr, ptr %167, align 8, !tbaa !19
  %169 = getelementptr inbounds nuw %struct.UConverter, ptr %168, i32 0, i32 12
  store i8 %165, ptr %169, align 8, !tbaa !20
  %170 = load ptr, ptr %4, align 8, !tbaa !3
  store i32 12, ptr %170, align 4, !tbaa !33
  br label %172

171:                                              ; preds = %162
  br label %62, !llvm.loop !56

172:                                              ; preds = %163, %148, %70
  br label %173

173:                                              ; preds = %172, %99
  %174 = load ptr, ptr %5, align 8, !tbaa !14
  %175 = load ptr, ptr %7, align 8, !tbaa !14
  %176 = icmp ult ptr %174, %175
  br i1 %176, label %177, label %188

177:                                              ; preds = %173
  %178 = load ptr, ptr %6, align 8, !tbaa !16
  %179 = load ptr, ptr %8, align 8, !tbaa !16
  %180 = icmp uge ptr %178, %179
  br i1 %180, label %181, label %188

181:                                              ; preds = %177
  %182 = load ptr, ptr %4, align 8, !tbaa !3
  %183 = load i32, ptr %182, align 4, !tbaa !33
  %184 = call noundef signext i8 @_ZL9U_SUCCESS10UErrorCode(i32 noundef %183)
  %185 = icmp ne i8 %184, 0
  br i1 %185, label %186, label %188

186:                                              ; preds = %181
  %187 = load ptr, ptr %4, align 8, !tbaa !3
  store i32 15, ptr %187, align 4, !tbaa !33
  br label %188

188:                                              ; preds = %186, %181, %177, %173
  %189 = load ptr, ptr %6, align 8, !tbaa !16
  %190 = load ptr, ptr %3, align 8, !tbaa !3
  %191 = getelementptr inbounds nuw %struct.UConverterToUnicodeArgs, ptr %190, i32 0, i32 5
  store ptr %189, ptr %191, align 8, !tbaa !15
  %192 = load ptr, ptr %5, align 8, !tbaa !14
  %193 = load ptr, ptr %3, align 8, !tbaa !3
  %194 = getelementptr inbounds nuw %struct.UConverterToUnicodeArgs, ptr %193, i32 0, i32 3
  store ptr %192, ptr %194, align 8, !tbaa !7
  call void @llvm.lifetime.end.p0(i64 4, ptr %11) #6
  call void @llvm.lifetime.end.p0(i64 4, ptr %10) #6
  call void @llvm.lifetime.end.p0(i64 8, ptr %9) #6
  call void @llvm.lifetime.end.p0(i64 8, ptr %8) #6
  call void @llvm.lifetime.end.p0(i64 8, ptr %7) #6
  call void @llvm.lifetime.end.p0(i64 8, ptr %6) #6
  call void @llvm.lifetime.end.p0(i64 8, ptr %5) #6
  ret void
}