; Function Attrs: mustprogress nofree norecurse nosync nounwind memory(readwrite, inaccessiblemem: none) uwtable
define internal void @_ZL31T_UConverter_toUnicode_UTF32_LEP23UConverterToUnicodeArgsP10UErrorCode(ptr noundef captures(none) %0, ptr noundef captures(none) %1) #0 {
  %3 = getelementptr inbounds nuw i8, ptr %0, i64 16
  %4 = load ptr, ptr %3, align 8, !tbaa !3
  %5 = getelementptr inbounds nuw i8, ptr %0, i64 32
  %6 = load ptr, ptr %5, align 8, !tbaa !13
  %7 = getelementptr inbounds nuw i8, ptr %0, i64 24
  %8 = load ptr, ptr %7, align 8, !tbaa !14
  %9 = getelementptr inbounds nuw i8, ptr %0, i64 40
  %10 = load ptr, ptr %9, align 8, !tbaa !15
  %11 = getelementptr inbounds nuw i8, ptr %0, i64 8
  %12 = load ptr, ptr %11, align 8, !tbaa !16
  %13 = getelementptr inbounds nuw i8, ptr %12, i64 65
  %14 = getelementptr inbounds nuw i8, ptr %12, i64 64
  %15 = load i8, ptr %14, align 8, !tbaa !17
  %16 = icmp sgt i8 %15, 0
  %17 = icmp ult ptr %6, %10
  %or.cond = select i1 %16, i1 %17, i1 false
  br i1 %or.cond, label %18, label %23

18:                                               ; preds = %2
  %19 = zext nneg i8 %15 to i32
  store i8 0, ptr %14, align 8, !tbaa !17
  %20 = getelementptr inbounds nuw i8, ptr %12, i64 72
  %21 = load i32, ptr %20, align 8, !tbaa !22
  %22 = add i32 %21, -1
  store i32 0, ptr %20, align 8, !tbaa !22
  br label %27

23:                                               ; preds = %62, %50, %2
  %.162 = phi ptr [ %52, %50 ], [ %63, %62 ], [ %6, %2 ]
  %.160 = phi ptr [ %.2.lcssa, %50 ], [ %.2.lcssa, %62 ], [ %4, %2 ]
  %24 = icmp ult ptr %.160, %8
  %25 = icmp ult ptr %.162, %10
  %26 = select i1 %24, i1 %25, i1 false
  br i1 %26, label %27, label %72

27:                                               ; preds = %23, %18
  %.061 = phi ptr [ %6, %18 ], [ %.162, %23 ]
  %.059 = phi ptr [ %4, %18 ], [ %.160, %23 ]
  %.057 = phi i32 [ %22, %18 ], [ 0, %23 ]
  %.0 = phi i32 [ %19, %18 ], [ 0, %23 ]
  %28 = icmp samesign ult i32 %.0, 4
  br i1 %28, label %.lr.ph.preheader, label %._crit_edge

.lr.ph.preheader:                                 ; preds = %27
  %29 = zext nneg i32 %.0 to i64
  br label %.lr.ph

.lr.ph:                                           ; preds = %.lr.ph.preheader, %31
  %indvars.iv = phi i64 [ %29, %.lr.ph.preheader ], [ %indvars.iv.next, %31 ]
  %.15878 = phi i32 [ %.057, %.lr.ph.preheader ], [ %36, %31 ]
  %.277 = phi ptr [ %.059, %.lr.ph.preheader ], [ %37, %31 ]
  %30 = icmp ult ptr %.277, %8
  br i1 %30, label %31, label %39

31:                                               ; preds = %.lr.ph
  %32 = load i8, ptr %.277, align 1, !tbaa !23
  %33 = zext i8 %32 to i32
  %indvars.iv.tr = trunc i64 %indvars.iv to i32
  %34 = shl i32 %indvars.iv.tr, 3
  %35 = shl nuw i32 %33, %34
  %36 = or i32 %35, %.15878
  %37 = getelementptr inbounds nuw i8, ptr %.277, i64 1
  %indvars.iv.next = add nuw nsw i64 %indvars.iv, 1
  %38 = getelementptr inbounds nuw i8, ptr %13, i64 %indvars.iv
  store i8 %32, ptr %38, align 1, !tbaa !23
  %exitcond.not = icmp eq i64 %indvars.iv.next, 4
  br i1 %exitcond.not, label %._crit_edge, label %.lr.ph, !llvm.loop !50

39:                                               ; preds = %.lr.ph
  %40 = add i32 %.15878, 1
  %41 = load ptr, ptr %11, align 8, !tbaa !16
  %42 = getelementptr inbounds nuw i8, ptr %41, i64 72
  store i32 %40, ptr %42, align 8, !tbaa !22
  %43 = trunc i64 %indvars.iv to i8
  %44 = getelementptr inbounds nuw i8, ptr %41, i64 64
  store i8 %43, ptr %44, align 8, !tbaa !17
  br label %72

._crit_edge:                                      ; preds = %31, %27
  %.2.lcssa = phi ptr [ %.059, %27 ], [ %37, %31 ]
  %.158.lcssa = phi i32 [ %.057, %27 ], [ %36, %31 ]
  %.1.lcssa = phi i32 [ %.0, %27 ], [ 4, %31 ]
  %45 = icmp ugt i32 %.158.lcssa, 1114111
  %46 = and i32 %.158.lcssa, 2095104
  %47 = icmp eq i32 %46, 55296
  %or.cond72 = or i1 %45, %47
  br i1 %or.cond72, label %68, label %48

48:                                               ; preds = %._crit_edge
  %49 = icmp samesign ult i32 %.158.lcssa, 65536
  br i1 %49, label %50, label %53

50:                                               ; preds = %48
  %51 = trunc nuw i32 %.158.lcssa to i16
  %52 = getelementptr inbounds nuw i8, ptr %.061, i64 2
  store i16 %51, ptr %.061, align 2, !tbaa !26
  br label %23, !llvm.loop !51

53:                                               ; preds = %48
  %54 = lshr i32 %.158.lcssa, 10
  %55 = trunc nuw i32 %54 to i16
  %56 = add nuw nsw i16 %55, -10304
  %57 = getelementptr inbounds nuw i8, ptr %.061, i64 2
  store i16 %56, ptr %.061, align 2, !tbaa !26
  %58 = trunc i32 %.158.lcssa to i16
  %59 = and i16 %58, 1023
  %60 = or disjoint i16 %59, -9216
  %61 = icmp ult ptr %57, %10
  br i1 %61, label %62, label %64

62:                                               ; preds = %53
  %63 = getelementptr inbounds nuw i8, ptr %.061, i64 4
  store i16 %60, ptr %57, align 2, !tbaa !26
  br label %23, !llvm.loop !51

64:                                               ; preds = %53
  %65 = load ptr, ptr %11, align 8, !tbaa !16
  %66 = getelementptr inbounds nuw i8, ptr %65, i64 144
  store i16 %60, ptr %66, align 8, !tbaa !26
  %67 = getelementptr inbounds nuw i8, ptr %65, i64 93
  store i8 1, ptr %67, align 1, !tbaa !29
  store i32 15, ptr %1, align 4, !tbaa !30
  br label %72

68:                                               ; preds = %._crit_edge
  %69 = trunc nuw nsw i32 %.1.lcssa to i8
  %70 = load ptr, ptr %11, align 8, !tbaa !16
  %71 = getelementptr inbounds nuw i8, ptr %70, i64 64
  store i8 %69, ptr %71, align 8, !tbaa !17
  store i32 12, ptr %1, align 4, !tbaa !30
  br label %72

72:                                               ; preds = %23, %64, %68, %39
  %.263 = phi ptr [ %.061, %39 ], [ %.061, %68 ], [ %.162, %23 ], [ %57, %64 ]
  %.3 = phi ptr [ %.277, %39 ], [ %.2.lcssa, %68 ], [ %.160, %23 ], [ %.2.lcssa, %64 ]
  %73 = icmp uge ptr %.3, %8
  %.not = icmp ult ptr %.263, %10
  %or.cond73 = select i1 %73, i1 true, i1 %.not
  br i1 %or.cond73, label %78, label %74

74:                                               ; preds = %72
  %75 = load i32, ptr %1, align 4, !tbaa !30
  %76 = icmp sgt i32 %75, 0
  br i1 %76, label %78, label %77

77:                                               ; preds = %74
  store i32 15, ptr %1, align 4, !tbaa !30
  br label %78

78:                                               ; preds = %77, %74, %72
  store ptr %.263, ptr %5, align 8, !tbaa !13
  store ptr %.3, ptr %3, align 8, !tbaa !3
  ret void
}